target datalayout = "e-m:e-p270:32:32-p271:32:32-p272:64:64-i64:64-i128:128-f80:128-n8:16:32:64-S128"
target triple = "x86_64-pc-linux-gnu"

%"class.clang::format::MacroCallReconstructor" = type { %"struct.clang::format::MacroCallReconstructor::ReconstructedLine", %"class.llvm::SmallVector.0", %"class.llvm::DenseMap", %"class.llvm::SmallVector.5", %"class.llvm::SmallVector.10", ptr }
%"struct.clang::format::MacroCallReconstructor::ReconstructedLine" = type { i32, %"class.llvm::SmallVector" }
%"class.llvm::SmallVector" = type { %"class.llvm::SmallVectorImpl", %"struct.llvm::SmallVectorStorage" }
%"class.llvm::SmallVectorImpl" = type { %"class.llvm::SmallVectorTemplateBase" }
%"class.llvm::SmallVectorTemplateBase" = type { %"class.llvm::SmallVectorTemplateCommon" }
%"class.llvm::SmallVectorTemplateCommon" = type { %"class.llvm::SmallVectorBase" }
%"class.llvm::SmallVectorBase" = type { ptr, i32, i32 }
%"struct.llvm::SmallVectorStorage" = type { [48 x i8] }
%"class.llvm::SmallVector.0" = type { %"class.llvm::SmallVectorImpl.1", %"struct.llvm::SmallVectorStorage.4" }
%"class.llvm::SmallVectorImpl.1" = type { %"class.llvm::SmallVectorTemplateBase.2" }
%"class.llvm::SmallVectorTemplateBase.2" = type { %"class.llvm::SmallVectorTemplateCommon.3" }
%"class.llvm::SmallVectorTemplateCommon.3" = type { %"class.llvm::SmallVectorBase" }
%"struct.llvm::SmallVectorStorage.4" = type { [48 x i8] }
%"class.llvm::DenseMap" = type <{ ptr, i32, i32, i32, [4 x i8] }>
%"class.llvm::SmallVector.5" = type { %"class.llvm::SmallVectorImpl.6", %"struct.llvm::SmallVectorStorage.9" }
%"class.llvm::SmallVectorImpl.6" = type { %"class.llvm::SmallVectorTemplateBase.7" }
%"class.llvm::SmallVectorTemplateBase.7" = type { %"class.llvm::SmallVectorTemplateCommon.8" }
%"class.llvm::SmallVectorTemplateCommon.8" = type { %"class.llvm::SmallVectorBase" }
%"struct.llvm::SmallVectorStorage.9" = type { [48 x i8] }
%"class.llvm::SmallVector.10" = type { %"class.llvm::SmallVectorImpl.11", %"struct.llvm::SmallVectorStorage.14" }
%"class.llvm::SmallVectorImpl.11" = type { %"class.llvm::SmallVectorTemplateBase.12" }
%"class.llvm::SmallVectorTemplateBase.12" = type { %"class.llvm::SmallVectorTemplateCommon.13" }
%"class.llvm::SmallVectorTemplateCommon.13" = type { %"class.llvm::SmallVectorBase" }
%"struct.llvm::SmallVectorStorage.14" = type { [48 x i8] }
%"struct.clang::format::FormatToken" = type <{ %"class.clang::Token", %"class.llvm::StringRef", %"class.std::shared_ptr", %"class.clang::SourceRange", i8, i16, i8, i32, i32, i32, i32, i32, i32, i32, i32, i32, i16, [2 x i8], i32, i32, i32, i32, i32, i32, i32, i32, i32, i32, [4 x i8], %"class.llvm::SmallVector.33", i32, i32, ptr, ptr, ptr, ptr, i8, i8, i8, i8, i8, i8, [2 x i8], %"class.llvm::SmallVector.38", %"class.std::optional", i8, [7 x i8] }>
%"class.clang::Token" = type <{ i32, i32, ptr, i16, i16, [4 x i8] }>
%"class.llvm::StringRef" = type { ptr, i64 }
%"class.std::shared_ptr" = type { %"class.std::__shared_ptr" }
%"class.std::__shared_ptr" = type { ptr, %"class.std::__shared_count" }
%"class.std::__shared_count" = type { ptr }
%"class.clang::SourceRange" = type { %"class.clang::SourceLocation", %"class.clang::SourceLocation" }
%"class.clang::SourceLocation" = type { i32 }
%"class.llvm::SmallVector.33" = type { %"class.llvm::SmallVectorImpl.34", %"struct.llvm::SmallVectorStorage.37" }
%"class.llvm::SmallVectorImpl.34" = type { %"class.llvm::SmallVectorTemplateBase.35" }
%"class.llvm::SmallVectorTemplateBase.35" = type { %"class.llvm::SmallVectorTemplateCommon.36" }
%"class.llvm::SmallVectorTemplateCommon.36" = type { %"class.llvm::SmallVectorBase" }
%"struct.llvm::SmallVectorStorage.37" = type { [16 x i8] }
%"class.llvm::SmallVector.38" = type { %"class.llvm::SmallVectorImpl.39", %"struct.llvm::SmallVectorStorage.42" }
%"class.llvm::SmallVectorImpl.39" = type { %"class.llvm::SmallVectorTemplateBase.40" }
%"class.llvm::SmallVectorTemplateBase.40" = type { %"class.llvm::SmallVectorTemplateCommon.41" }
%"class.llvm::SmallVectorTemplateCommon.41" = type { %"class.llvm::SmallVectorBase" }
%"struct.llvm::SmallVectorStorage.42" = type { [8 x i8] }
%"class.std::optional" = type { %"struct.std::_Optional_base" }
%"struct.std::_Optional_base" = type { %"struct.std::_Optional_payload" }
%"struct.std::_Optional_payload" = type { %"struct.std::_Optional_payload.base", [7 x i8] }
%"struct.std::_Optional_payload.base" = type { %"struct.std::_Optional_payload_base.base" }
%"struct.std::_Optional_payload_base.base" = type <{ %"union.std::_Optional_payload_base<clang::format::MacroExpansion>::_Storage", i8 }>
%"union.std::_Optional_payload_base<clang::format::MacroExpansion>::_Storage" = type { %"struct.clang::format::MacroExpansion" }
%"struct.clang::format::MacroExpansion" = type { i32, %"class.llvm::SmallVector.44", i32, i32 }
%"class.llvm::SmallVector.44" = type { %"class.llvm::SmallVectorImpl.45", %"struct.llvm::SmallVectorStorage.48" }
%"class.llvm::SmallVectorImpl.45" = type { %"class.llvm::SmallVectorTemplateBase.46" }
%"class.llvm::SmallVectorTemplateBase.46" = type { %"class.llvm::SmallVectorTemplateCommon.47" }
%"class.llvm::SmallVectorTemplateCommon.47" = type { %"class.llvm::SmallVectorBase" }
%"struct.llvm::SmallVectorStorage.48" = type { [8 x i8] }
%"struct.std::pair.70" = type { ptr, ptr }
%"struct.llvm::detail::DenseMapPair.69" = type { %"struct.std::pair.70" }

; Function Attrs: mustprogress nounwind uwtable
define linkonce_odr hidden noundef i32 @_ZN4llvm12DenseMapInfoIPN5clang6format11FormatTokenEvE12getHashValueEPKS3_(ptr noundef %0) #0 comdat align 2 {
  %2 = alloca ptr, align 8
  store ptr %0, ptr %2, align 8
  %3 = load ptr, ptr %2, align 8
  %4 = ptrtoint ptr %3 to i64
  %5 = trunc i64 %4 to i32
  %6 = lshr i32 %5, 4
  %7 = load ptr, ptr %2, align 8
  %8 = ptrtoint ptr %7 to i64
  %9 = trunc i64 %8 to i32
  %10 = lshr i32 %9, 9
  %11 = xor i32 %6, %10
  ret i32 %11
}

; Function Attrs: mustprogress nounwind uwtable
define linkonce_odr hidden noundef ptr @_ZN4llvm12DenseMapInfoIPN5clang6format11FormatTokenEvE11getEmptyKeyEv() #0 comdat align 2 {
  %1 = alloca i64, align 8
  store i64 -1, ptr %1, align 8
  %2 = load i64, ptr %1, align 8
  %3 = shl i64 %2, 12
  store i64 %3, ptr %1, align 8
  %4 = load i64, ptr %1, align 8
  %5 = inttoptr i64 %4 to ptr
  ret ptr %5
}

; Function Attrs: mustprogress nounwind uwtable
define linkonce_odr hidden noundef i32 @_ZNK4llvm8DenseMapIPN5clang6format11FormatTokenES4_NS_12DenseMapInfoIS4_vEENS_6detail12DenseMapPairIS4_S4_EEE13getNumBucketsEv(ptr noundef nonnull align 8 dereferenceable(20) %0) #0 comdat align 2 {
  %2 = alloca ptr, align 8
  store ptr %0, ptr %2, align 8
  %3 = load ptr, ptr %2, align 8
  %4 = getelementptr inbounds nuw %"class.llvm::DenseMap", ptr %3, i32 0, i32 3
  %5 = load i32, ptr %4, align 8
  ret i32 %5
}

; Function Attrs: mustprogress nounwind uwtable
define linkonce_odr hidden noundef ptr @_ZNK4llvm8DenseMapIPN5clang6format11FormatTokenES4_NS_12DenseMapInfoIS4_vEENS_6detail12DenseMapPairIS4_S4_EEE10getBucketsEv(ptr noundef nonnull align 8 dereferenceable(20) %0) #0 comdat align 2 {
  %2 = alloca ptr, align 8
  store ptr %0, ptr %2, align 8
  %3 = load ptr, ptr %2, align 8
  %4 = getelementptr inbounds nuw %"class.llvm::DenseMap", ptr %3, i32 0, i32 0
  %5 = load ptr, ptr %4, align 8
  ret ptr %5
}

; Function Attrs: mustprogress nounwind uwtable
define linkonce_odr hidden noundef zeroext i1 @_ZN4llvm12DenseMapInfoIPN5clang6format11FormatTokenEvE7isEqualEPKS3_S7_(ptr noundef %0, ptr noundef %1) #0 comdat align 2 {
  %3 = alloca ptr, align 8
  %4 = alloca ptr, align 8
  store ptr %0, ptr %3, align 8
  store ptr %1, ptr %4, align 8
  %5 = load ptr, ptr %3, align 8
  %6 = load ptr, ptr %4, align 8
  %7 = icmp eq ptr %5, %6
  ret i1 %7
}

; Function Attrs: mustprogress nounwind uwtable
define linkonce_odr hidden noundef nonnull align 8 dereferenceable(8) ptr @_ZN4llvm6detail12DenseMapPairIPN5clang6format11FormatTokenES5_E8getFirstEv(ptr noundef nonnull align 8 dereferenceable(16) %0) #0 comdat align 2 {
  %2 = alloca ptr, align 8
  store ptr %0, ptr %2, align 8
  %3 = load ptr, ptr %2, align 8
  %4 = getelementptr inbounds nuw %"struct.std::pair.70", ptr %3, i32 0, i32 0
  ret ptr %4
}

; Function Attrs: mustprogress nounwind uwtable
define linkonce_odr hidden noundef i32 @_ZN4llvm12DenseMapBaseINS_8DenseMapIPN5clang6format11FormatTokenES5_NS_12DenseMapInfoIS5_vEENS_6detail12DenseMapPairIS5_S5_EEEES5_S5_S7_SA_E12getHashValueIPKS4_EEjRKT_(ptr noundef nonnull align 8 dereferenceable(8) %0) #0 comdat align 2 {
  %2 = alloca ptr, align 8
  store ptr %0, ptr %2, align 8
  %3 = load ptr, ptr %2, align 8
  %4 = load ptr, ptr %3, align 8
  %5 = call noundef i32 @_ZN4llvm12DenseMapInfoIPN5clang6format11FormatTokenEvE12getHashValueEPKS3_(ptr noundef %4)
  ret i32 %5
}

; Function Attrs: mustprogress nounwind uwtable
define linkonce_odr hidden noundef ptr @_ZN4llvm12DenseMapBaseINS_8DenseMapIPN5clang6format11FormatTokenES5_NS_12DenseMapInfoIS5_vEENS_6detail12DenseMapPairIS5_S5_EEEES5_S5_S7_SA_E11getEmptyKeyEv() #0 comdat align 2 {
  %1 = call noundef ptr @_ZN4llvm12DenseMapInfoIPN5clang6format11FormatTokenEvE11getEmptyKeyEv()
  ret ptr %1
}

; Function Attrs: mustprogress nounwind uwtable
define linkonce_odr hidden noundef i32 @_ZNK4llvm12DenseMapBaseINS_8DenseMapIPN5clang6format11FormatTokenES5_NS_12DenseMapInfoIS5_vEENS_6detail12DenseMapPairIS5_S5_EEEES5_S5_S7_SA_E13getNumBucketsEv(ptr noundef nonnull align 1 dereferenceable(1) %0) #0 comdat align 2 {
  %2 = alloca ptr, align 8
  store ptr %0, ptr %2, align 8
  %3 = load ptr, ptr %2, align 8
  %4 = call noundef i32 @_ZNK4llvm8DenseMapIPN5clang6format11FormatTokenES4_NS_12DenseMapInfoIS4_vEENS_6detail12DenseMapPairIS4_S4_EEE13getNumBucketsEv(ptr noundef nonnull align 8 dereferenceable(20) %3)
  ret i32 %4
}

; Function Attrs: mustprogress nounwind uwtable
define linkonce_odr hidden noundef ptr @_ZN4llvm12DenseMapBaseINS_8DenseMapIPN5clang6format11FormatTokenES5_NS_12DenseMapInfoIS5_vEENS_6detail12DenseMapPairIS5_S5_EEEES5_S5_S7_SA_E10getBucketsEv(ptr noundef nonnull align 1 dereferenceable(1) %0) #0 comdat align 2 {
  %2 = alloca ptr, align 8
  store ptr %0, ptr %2, align 8
  %3 = load ptr, ptr %2, align 8
  %4 = call noundef ptr @_ZNK4llvm8DenseMapIPN5clang6format11FormatTokenES4_NS_12DenseMapInfoIS4_vEENS_6detail12DenseMapPairIS4_S4_EEE10getBucketsEv(ptr noundef nonnull align 8 dereferenceable(20) %3)
  ret ptr %4
}

; Function Attrs: mustprogress nounwind uwtable
define linkonce_odr hidden noundef ptr @_ZN4llvm12DenseMapBaseINS_8DenseMapIPN5clang6format11FormatTokenES5_NS_12DenseMapInfoIS5_vEENS_6detail12DenseMapPairIS5_S5_EEEES5_S5_S7_SA_E6doFindIPKS4_EEPSA_RKT_(ptr noundef nonnull align 1 dereferenceable(1) %0, ptr noundef nonnull align 8 dereferenceable(8) %1) #0 comdat align 2 {
  %3 = alloca ptr, align 8
  %4 = alloca ptr, align 8
  %5 = alloca ptr, align 8
  %6 = alloca ptr, align 8
  %7 = alloca i32, align 4
  %8 = alloca ptr, align 8
  %9 = alloca i32, align 4
  %10 = alloca i32, align 4
  %11 = alloca ptr, align 8
  store ptr %0, ptr %4, align 8
  store ptr %1, ptr %5, align 8
  %12 = load ptr, ptr %4, align 8
  %13 = call noundef ptr @_ZN4llvm12DenseMapBaseINS_8DenseMapIPN5clang6format11FormatTokenES5_NS_12DenseMapInfoIS5_vEENS_6detail12DenseMapPairIS5_S5_EEEES5_S5_S7_SA_E10getBucketsEv(ptr noundef nonnull align 1 dereferenceable(1) %12)
  store ptr %13, ptr %6, align 8
  %14 = call noundef i32 @_ZNK4llvm12DenseMapBaseINS_8DenseMapIPN5clang6format11FormatTokenES5_NS_12DenseMapInfoIS5_vEENS_6detail12DenseMapPairIS5_S5_EEEES5_S5_S7_SA_E13getNumBucketsEv(ptr noundef nonnull align 1 dereferenceable(1) %12)
  store i32 %14, ptr %7, align 4
  %15 = load i32, ptr %7, align 4
  %16 = icmp eq i32 %15, 0
  br i1 %16, label %17, label %18

17:                                               ; preds = %2
  store ptr null, ptr %3, align 8
  br label %54

18:                                               ; preds = %2
  %19 = call noundef ptr @_ZN4llvm12DenseMapBaseINS_8DenseMapIPN5clang6format11FormatTokenES5_NS_12DenseMapInfoIS5_vEENS_6detail12DenseMapPairIS5_S5_EEEES5_S5_S7_SA_E11getEmptyKeyEv()
  store ptr %19, ptr %8, align 8
  %20 = load ptr, ptr %5, align 8
  %21 = call noundef i32 @_ZN4llvm12DenseMapBaseINS_8DenseMapIPN5clang6format11FormatTokenES5_NS_12DenseMapInfoIS5_vEENS_6detail12DenseMapPairIS5_S5_EEEES5_S5_S7_SA_E12getHashValueIPKS4_EEjRKT_(ptr noundef nonnull align 8 dereferenceable(8) %20)
  %22 = load i32, ptr %7, align 4
  %23 = sub i32 %22, 1
  %24 = and i32 %21, %23
  store i32 %24, ptr %9, align 4
  store i32 1, ptr %10, align 4
  br label %25

25:                                               ; preds = %45, %18
  %26 = load ptr, ptr %6, align 8
  %27 = load i32, ptr %9, align 4
  %28 = zext i32 %27 to i64
  %29 = getelementptr inbounds %"struct.llvm::detail::DenseMapPair.69", ptr %26, i64 %28
  store ptr %29, ptr %11, align 8
  %30 = load ptr, ptr %5, align 8
  %31 = load ptr, ptr %30, align 8
  %32 = load ptr, ptr %11, align 8
  %33 = call noundef nonnull align 8 dereferenceable(8) ptr @_ZN4llvm6detail12DenseMapPairIPN5clang6format11FormatTokenES5_E8getFirstEv(ptr noundef nonnull align 8 dereferenceable(16) %32)
  %34 = load ptr, ptr %33, align 8
  %35 = call noundef zeroext i1 @_ZN4llvm12DenseMapInfoIPN5clang6format11FormatTokenEvE7isEqualEPKS3_S7_(ptr noundef %31, ptr noundef %34)
  br i1 %35, label %36, label %38

36:                                               ; preds = %25
  %37 = load ptr, ptr %11, align 8
  store ptr %37, ptr %3, align 8
  br label %54

38:                                               ; preds = %25
  %39 = load ptr, ptr %11, align 8
  %40 = call noundef nonnull align 8 dereferenceable(8) ptr @_ZN4llvm6detail12DenseMapPairIPN5clang6format11FormatTokenES5_E8getFirstEv(ptr noundef nonnull align 8 dereferenceable(16) %39)
  %41 = load ptr, ptr %40, align 8
  %42 = load ptr, ptr %8, align 8
  %43 = call noundef zeroext i1 @_ZN4llvm12DenseMapInfoIPN5clang6format11FormatTokenEvE7isEqualEPKS3_S7_(ptr noundef %41, ptr noundef %42)
  br i1 %43, label %44, label %45

44:                                               ; preds = %38
  store ptr null, ptr %3, align 8
  br label %54

45:                                               ; preds = %38
  %46 = load i32, ptr %10, align 4
  %47 = add i32 %46, 1
  store i32 %47, ptr %10, align 4
  %48 = load i32, ptr %9, align 4
  %49 = add i32 %48, %46
  store i32 %49, ptr %9, align 4
  %50 = load i32, ptr %7, align 4
  %51 = sub i32 %50, 1
  %52 = load i32, ptr %9, align 4
  %53 = and i32 %52, %51
  store i32 %53, ptr %9, align 4
  br label %25, !llvm.loop !32

54:                                               ; preds = %44, %36, %17
  %55 = load ptr, ptr %3, align 8
  ret ptr %55
}

; Function Attrs: mustprogress nounwind uwtable
define linkonce_odr hidden noundef nonnull align 8 dereferenceable(8) ptr @_ZNK4llvm6detail12DenseMapPairIPN5clang6format11FormatTokenES5_E9getSecondEv(ptr noundef nonnull align 8 dereferenceable(16) %0) #0 comdat align 2 {
  %2 = alloca ptr, align 8
  store ptr %0, ptr %2, align 8
  %3 = load ptr, ptr %2, align 8
  %4 = getelementptr inbounds nuw %"struct.std::pair.70", ptr %3, i32 0, i32 1
  ret ptr %4
}

; Function Attrs: mustprogress nounwind uwtable
define linkonce_odr hidden noundef ptr @_ZNK4llvm12DenseMapBaseINS_8DenseMapIPN5clang6format11FormatTokenES5_NS_12DenseMapInfoIS5_vEENS_6detail12DenseMapPairIS5_S5_EEEES5_S5_S7_SA_E6doFindIPKS4_EEPKSA_RKT_(ptr noundef nonnull align 1 dereferenceable(1) %0, ptr noundef nonnull align 8 dereferenceable(8) %1) #0 comdat align 2 {
  %3 = alloca ptr, align 8
  %4 = alloca ptr, align 8
  store ptr %0, ptr %3, align 8
  store ptr %1, ptr %4, align 8
  %5 = load ptr, ptr %3, align 8
  %6 = load ptr, ptr %4, align 8
  %7 = call noundef ptr @_ZN4llvm12DenseMapBaseINS_8DenseMapIPN5clang6format11FormatTokenES5_NS_12DenseMapInfoIS5_vEENS_6detail12DenseMapPairIS5_S5_EEEES5_S5_S7_SA_E6doFindIPKS4_EEPSA_RKT_(ptr noundef nonnull align 1 dereferenceable(1) %5, ptr noundef nonnull align 8 dereferenceable(8) %6)
  ret ptr %7
}

; Function Attrs: mustprogress nounwind uwtable
define linkonce_odr hidden noundef ptr @_ZNK4llvm12DenseMapBaseINS_8DenseMapIPN5clang6format11FormatTokenES5_NS_12DenseMapInfoIS5_vEENS_6detail12DenseMapPairIS5_S5_EEEES5_S5_S7_SA_E6lookupEPKS4_(ptr noundef nonnull align 1 dereferenceable(1) %0, ptr noundef %1) #0 comdat align 2 {
  %3 = alloca ptr, align 8
  %4 = alloca ptr, align 8
  %5 = alloca ptr, align 8
  %6 = alloca ptr, align 8
  store ptr %0, ptr %4, align 8
  store ptr %1, ptr %5, align 8
  %7 = load ptr, ptr %4, align 8
  %8 = call noundef ptr @_ZNK4llvm12DenseMapBaseINS_8DenseMapIPN5clang6format11FormatTokenES5_NS_12DenseMapInfoIS5_vEENS_6detail12DenseMapPairIS5_S5_EEEES5_S5_S7_SA_E6doFindIPKS4_EEPKSA_RKT_(ptr noundef nonnull align 1 dereferenceable(1) %7, ptr noundef nonnull align 8 dereferenceable(8) %5)
  store ptr %8, ptr %6, align 8
  %9 = load ptr, ptr %6, align 8
  %10 = icmp ne ptr %9, null
  br i1 %10, label %11, label %15

11:                                               ; preds = %2
  %12 = load ptr, ptr %6, align 8
  %13 = call noundef nonnull align 8 dereferenceable(8) ptr @_ZNK4llvm6detail12DenseMapPairIPN5clang6format11FormatTokenES5_E9getSecondEv(ptr noundef nonnull align 8 dereferenceable(16) %12)
  %14 = load ptr, ptr %13, align 8
  store ptr %14, ptr %3, align 8
  br label %16

15:                                               ; preds = %2
  store ptr null, ptr %3, align 8
  br label %16

16:                                               ; preds = %15, %11
  %17 = load ptr, ptr %3, align 8
  ret ptr %17
}

; Function Attrs: mustprogress nounwind uwtable
define dso_local noundef ptr @_ZN5clang6format22MacroCallReconstructor17getParentInResultEPNS0_11FormatTokenE(ptr noundef nonnull align 8 dereferenceable(296) %0, ptr noundef %1) #0 align 2 {
  %3 = alloca ptr, align 8
  %4 = alloca ptr, align 8
  %5 = alloca ptr, align 8
  %6 = alloca ptr, align 8
  store ptr %0, ptr %4, align 8
  store ptr %1, ptr %5, align 8
  %7 = load ptr, ptr %4, align 8
  %8 = getelementptr inbounds nuw %"class.clang::format::MacroCallReconstructor", ptr %7, i32 0, i32 2
  %9 = load ptr, ptr %5, align 8
  %10 = call noundef ptr @_ZNK4llvm12DenseMapBaseINS_8DenseMapIPN5clang6format11FormatTokenES5_NS_12DenseMapInfoIS5_vEENS_6detail12DenseMapPairIS5_S5_EEEES5_S5_S7_SA_E6lookupEPKS4_(ptr noundef nonnull align 1 dereferenceable(1) %8, ptr noundef %9)
  store ptr %10, ptr %6, align 8
  %11 = load ptr, ptr %6, align 8
  %12 = icmp ne ptr %11, null
  br i1 %12, label %15, label %13

13:                                               ; preds = %2
  %14 = load ptr, ptr %5, align 8
  store ptr %14, ptr %3, align 8
  br label %29

15:                                               ; preds = %2
  br label %16

16:                                               ; preds = %21, %15
  %17 = load ptr, ptr %6, align 8
  %18 = icmp ne ptr %17, null
  br i1 %18, label %19, label %25

19:                                               ; preds = %16
  %20 = load ptr, ptr %6, align 8
  store ptr %20, ptr %5, align 8
  br label %21

21:                                               ; preds = %19
  %22 = getelementptr inbounds nuw %"class.clang::format::MacroCallReconstructor", ptr %7, i32 0, i32 2
  %23 = load ptr, ptr %5, align 8
  %24 = call noundef ptr @_ZNK4llvm12DenseMapBaseINS_8DenseMapIPN5clang6format11FormatTokenES5_NS_12DenseMapInfoIS5_vEENS_6detail12DenseMapPairIS5_S5_EEEES5_S5_S7_SA_E6lookupEPKS4_(ptr noundef nonnull align 1 dereferenceable(1) %22, ptr noundef %23)
  store ptr %24, ptr %6, align 8
  br label %16, !llvm.loop !10

25:                                               ; preds = %16
  %26 = load ptr, ptr %5, align 8
  %27 = getelementptr inbounds nuw %"struct.clang::format::FormatToken", ptr %26, i32 0, i32 45
  store i8 1, ptr %27, align 8
  %28 = load ptr, ptr %5, align 8
  store ptr %28, ptr %3, align 8
  br label %29

29:                                               ; preds = %25, %13
  %30 = load ptr, ptr %3, align 8
  ret ptr %30
}