; Function Attrs: mustprogress nofree norecurse nosync nounwind memory(readwrite, inaccessiblemem: none) uwtable
define dso_local noundef ptr @_ZN5clang6format22MacroCallReconstructor17getParentInResultEPNS0_11FormatTokenE(ptr nocapture noundef nonnull readonly align 8 dereferenceable(296) %0, ptr noundef %1) local_unnamed_addr #2 align 2 {
  %3 = getelementptr inbounds nuw i8, ptr %0, i64 136
  %4 = load ptr, ptr %3, align 8
  %5 = getelementptr inbounds i8, ptr %0, i64 152
  %6 = load i32, ptr %5, align 8
  %7 = icmp eq i32 %6, 0
  br i1 %7, label %_ZNK4llvm12DenseMapBaseINS_8DenseMapIPN5clang6format11FormatTokenES5_NS_12DenseMapInfoIS5_vEENS_6detail12DenseMapPairIS5_S5_EEEES5_S5_S7_SA_E6lookupEPKS4_.exit.thread, label %8

8:                                                ; preds = %2
  %9 = ptrtoint ptr %1 to i64
  %10 = trunc i64 %9 to i32
  %11 = lshr i32 %10, 4
  %12 = lshr i32 %10, 9
  %13 = xor i32 %11, %12
  %14 = add i32 %6, -1
  %.01618.i.i.i = and i32 %14, %13
  %15 = zext nneg i32 %.01618.i.i.i to i64
  %16 = getelementptr inbounds %"struct.llvm::detail::DenseMapPair.69", ptr %4, i64 %15
  %17 = load ptr, ptr %16, align 8
  %18 = icmp eq ptr %1, %17
  br i1 %18, label %_ZNK4llvm12DenseMapBaseINS_8DenseMapIPN5clang6format11FormatTokenES5_NS_12DenseMapInfoIS5_vEENS_6detail12DenseMapPairIS5_S5_EEEES5_S5_S7_SA_E6lookupEPKS4_.exit, label %.lr.ph.i.i.i

.lr.ph.i.i.i:                                     ; preds = %8, %21
  %19 = phi ptr [ %26, %21 ], [ %17, %8 ]
  %.01620.i.i.i = phi i32 [ %.016.i.i.i, %21 ], [ %.01618.i.i.i, %8 ]
  %.01519.i.i.i = phi i32 [ %22, %21 ], [ 1, %8 ]
  %20 = icmp eq ptr %19, inttoptr (i64 -4096 to ptr)
  br i1 %20, label %_ZNK4llvm12DenseMapBaseINS_8DenseMapIPN5clang6format11FormatTokenES5_NS_12DenseMapInfoIS5_vEENS_6detail12DenseMapPairIS5_S5_EEEES5_S5_S7_SA_E6lookupEPKS4_.exit.thread, label %21

21:                                               ; preds = %.lr.ph.i.i.i
  %22 = add i32 %.01519.i.i.i, 1
  %23 = add i32 %.01519.i.i.i, %.01620.i.i.i
  %.016.i.i.i = and i32 %23, %14
  %24 = zext i32 %.016.i.i.i to i64
  %25 = getelementptr inbounds %"struct.llvm::detail::DenseMapPair.69", ptr %4, i64 %24
  %26 = load ptr, ptr %25, align 8
  %27 = icmp eq ptr %1, %26
  br i1 %27, label %_ZNK4llvm12DenseMapBaseINS_8DenseMapIPN5clang6format11FormatTokenES5_NS_12DenseMapInfoIS5_vEENS_6detail12DenseMapPairIS5_S5_EEEES5_S5_S7_SA_E6lookupEPKS4_.exit, label %.lr.ph.i.i.i, !llvm.loop !17

_ZNK4llvm12DenseMapBaseINS_8DenseMapIPN5clang6format11FormatTokenES5_NS_12DenseMapInfoIS5_vEENS_6detail12DenseMapPairIS5_S5_EEEES5_S5_S7_SA_E6lookupEPKS4_.exit: ; preds = %21, %8
  %28 = phi i64 [ %15, %8 ], [ %24, %21 ]
  %29 = getelementptr inbounds %"struct.llvm::detail::DenseMapPair.69", ptr %4, i64 %28, i32 0, i32 1
  %30 = load ptr, ptr %29, align 8
  %.not = icmp eq ptr %30, null
  br i1 %.not, label %_ZNK4llvm12DenseMapBaseINS_8DenseMapIPN5clang6format11FormatTokenES5_NS_12DenseMapInfoIS5_vEENS_6detail12DenseMapPairIS5_S5_EEEES5_S5_S7_SA_E6lookupEPKS4_.exit.thread, label %.preheader

.preheader:                                       ; preds = %_ZNK4llvm12DenseMapBaseINS_8DenseMapIPN5clang6format11FormatTokenES5_NS_12DenseMapInfoIS5_vEENS_6detail12DenseMapPairIS5_S5_EEEES5_S5_S7_SA_E6lookupEPKS4_.exit, %_ZNK4llvm12DenseMapBaseINS_8DenseMapIPN5clang6format11FormatTokenES5_NS_12DenseMapInfoIS5_vEENS_6detail12DenseMapPairIS5_S5_EEEES5_S5_S7_SA_E6lookupEPKS4_.exit21
  %.025 = phi ptr [ %51, %_ZNK4llvm12DenseMapBaseINS_8DenseMapIPN5clang6format11FormatTokenES5_NS_12DenseMapInfoIS5_vEENS_6detail12DenseMapPairIS5_S5_EEEES5_S5_S7_SA_E6lookupEPKS4_.exit21 ], [ %30, %_ZNK4llvm12DenseMapBaseINS_8DenseMapIPN5clang6format11FormatTokenES5_NS_12DenseMapInfoIS5_vEENS_6detail12DenseMapPairIS5_S5_EEEES5_S5_S7_SA_E6lookupEPKS4_.exit ]
  %31 = ptrtoint ptr %.025 to i64
  %32 = trunc i64 %31 to i32
  %33 = lshr i32 %32, 4
  %34 = lshr i32 %32, 9
  %35 = xor i32 %33, %34
  %.01618.i.i.i14 = and i32 %35, %14
  %36 = zext nneg i32 %.01618.i.i.i14 to i64
  %37 = getelementptr inbounds %"struct.llvm::detail::DenseMapPair.69", ptr %4, i64 %36
  %38 = load ptr, ptr %37, align 8
  %39 = icmp eq ptr %.025, %38
  br i1 %39, label %_ZNK4llvm12DenseMapBaseINS_8DenseMapIPN5clang6format11FormatTokenES5_NS_12DenseMapInfoIS5_vEENS_6detail12DenseMapPairIS5_S5_EEEES5_S5_S7_SA_E6lookupEPKS4_.exit21, label %.lr.ph.i.i.i15

.lr.ph.i.i.i15:                                   ; preds = %.preheader, %42
  %40 = phi ptr [ %47, %42 ], [ %38, %.preheader ]
  %.01620.i.i.i16 = phi i32 [ %.016.i.i.i18, %42 ], [ %.01618.i.i.i14, %.preheader ]
  %.01519.i.i.i17 = phi i32 [ %43, %42 ], [ 1, %.preheader ]
  %41 = icmp eq ptr %40, inttoptr (i64 -4096 to ptr)
  br i1 %41, label %_ZNK4llvm12DenseMapBaseINS_8DenseMapIPN5clang6format11FormatTokenES5_NS_12DenseMapInfoIS5_vEENS_6detail12DenseMapPairIS5_S5_EEEES5_S5_S7_SA_E6lookupEPKS4_.exit21.thread, label %42

42:                                               ; preds = %.lr.ph.i.i.i15
  %43 = add i32 %.01519.i.i.i17, 1
  %44 = add i32 %.01519.i.i.i17, %.01620.i.i.i16
  %.016.i.i.i18 = and i32 %44, %14
  %45 = zext i32 %.016.i.i.i18 to i64
  %46 = getelementptr inbounds %"struct.llvm::detail::DenseMapPair.69", ptr %4, i64 %45
  %47 = load ptr, ptr %46, align 8
  %48 = icmp eq ptr %.025, %47
  br i1 %48, label %_ZNK4llvm12DenseMapBaseINS_8DenseMapIPN5clang6format11FormatTokenES5_NS_12DenseMapInfoIS5_vEENS_6detail12DenseMapPairIS5_S5_EEEES5_S5_S7_SA_E6lookupEPKS4_.exit21, label %.lr.ph.i.i.i15, !llvm.loop !17

_ZNK4llvm12DenseMapBaseINS_8DenseMapIPN5clang6format11FormatTokenES5_NS_12DenseMapInfoIS5_vEENS_6detail12DenseMapPairIS5_S5_EEEES5_S5_S7_SA_E6lookupEPKS4_.exit21: ; preds = %42, %.preheader
  %49 = phi i64 [ %36, %.preheader ], [ %45, %42 ]
  %50 = getelementptr inbounds %"struct.llvm::detail::DenseMapPair.69", ptr %4, i64 %49, i32 0, i32 1
  %51 = load ptr, ptr %50, align 8
  %.not13 = icmp eq ptr %51, null
  br i1 %.not13, label %_ZNK4llvm12DenseMapBaseINS_8DenseMapIPN5clang6format11FormatTokenES5_NS_12DenseMapInfoIS5_vEENS_6detail12DenseMapPairIS5_S5_EEEES5_S5_S7_SA_E6lookupEPKS4_.exit21.thread, label %.preheader, !llvm.loop !18

_ZNK4llvm12DenseMapBaseINS_8DenseMapIPN5clang6format11FormatTokenES5_NS_12DenseMapInfoIS5_vEENS_6detail12DenseMapPairIS5_S5_EEEES5_S5_S7_SA_E6lookupEPKS4_.exit21.thread: ; preds = %_ZNK4llvm12DenseMapBaseINS_8DenseMapIPN5clang6format11FormatTokenES5_NS_12DenseMapInfoIS5_vEENS_6detail12DenseMapPairIS5_S5_EEEES5_S5_S7_SA_E6lookupEPKS4_.exit21, %.lr.ph.i.i.i15
  %52 = getelementptr inbounds nuw i8, ptr %.025, i64 304
  store i8 1, ptr %52, align 8
  br label %_ZNK4llvm12DenseMapBaseINS_8DenseMapIPN5clang6format11FormatTokenES5_NS_12DenseMapInfoIS5_vEENS_6detail12DenseMapPairIS5_S5_EEEES5_S5_S7_SA_E6lookupEPKS4_.exit.thread

_ZNK4llvm12DenseMapBaseINS_8DenseMapIPN5clang6format11FormatTokenES5_NS_12DenseMapInfoIS5_vEENS_6detail12DenseMapPairIS5_S5_EEEES5_S5_S7_SA_E6lookupEPKS4_.exit.thread: ; preds = %.lr.ph.i.i.i, %2, %_ZNK4llvm12DenseMapBaseINS_8DenseMapIPN5clang6format11FormatTokenES5_NS_12DenseMapInfoIS5_vEENS_6detail12DenseMapPairIS5_S5_EEEES5_S5_S7_SA_E6lookupEPKS4_.exit, %_ZNK4llvm12DenseMapBaseINS_8DenseMapIPN5clang6format11FormatTokenES5_NS_12DenseMapInfoIS5_vEENS_6detail12DenseMapPairIS5_S5_EEEES5_S5_S7_SA_E6lookupEPKS4_.exit21.thread
  %.011 = phi ptr [ %.025, %_ZNK4llvm12DenseMapBaseINS_8DenseMapIPN5clang6format11FormatTokenES5_NS_12DenseMapInfoIS5_vEENS_6detail12DenseMapPairIS5_S5_EEEES5_S5_S7_SA_E6lookupEPKS4_.exit21.thread ], [ %1, %_ZNK4llvm12DenseMapBaseINS_8DenseMapIPN5clang6format11FormatTokenES5_NS_12DenseMapInfoIS5_vEENS_6detail12DenseMapPairIS5_S5_EEEES5_S5_S7_SA_E6lookupEPKS4_.exit ], [ %1, %2 ], [ %1, %.lr.ph.i.i.i ]
  ret ptr %.011
}